target datalayout = "e-m:e-p270:32:32-p271:32:32-p272:64:64-i64:64-i128:128-f80:128-n8:16:32:64-S128"
target triple = "x86_64-pc-linux-gnu"

%"class.llvm::StringRef" = type { ptr, i64 }
%"class.llvm::SmallVectorBase" = type { ptr, i32, i32 }
%"class.llvm::SmallVectorImpl.85" = type { %"class.llvm::SmallVectorTemplateBase.86" }
%"class.llvm::SmallVectorTemplateBase.86" = type { %"class.llvm::SmallVectorTemplateCommon.87" }
%"class.llvm::SmallVectorTemplateCommon.87" = type { %"class.llvm::SmallVectorBase.88" }
%"class.llvm::SmallVectorBase.88" = type { ptr, i64, i64 }
%"class.std::vector" = type { %"struct.std::_Vector_base" }
%"struct.std::_Vector_base" = type { %"struct.std::_Vector_base<std::__cxx11::basic_string<char>, std::allocator<std::__cxx11::basic_string<char>>>::_Vector_impl" }
%"struct.std::_Vector_base<std::__cxx11::basic_string<char>, std::allocator<std::__cxx11::basic_string<char>>>::_Vector_impl" = type { %"struct.std::_Vector_base<std::__cxx11::basic_string<char>, std::allocator<std::__cxx11::basic_string<char>>>::_Vector_impl_data" }
%"struct.std::_Vector_base<std::__cxx11::basic_string<char>, std::allocator<std::__cxx11::basic_string<char>>>::_Vector_impl_data" = type { ptr, ptr, ptr }
%"class.std::__cxx11::basic_string" = type { %"struct.std::__cxx11::basic_string<char>::_Alloc_hider", i64, %union.anon }
%"struct.std::__cxx11::basic_string<char>::_Alloc_hider" = type { ptr }
%union.anon = type { i64, [8 x i8] }
%"class.llvm::DwarfDebug" = type <{ %"class.llvm::DebugHandlerBase", %"class.llvm::BumpPtrAllocatorImpl", %"class.llvm::MapVector.203", %"class.llvm::DenseMap.212", %"class.std::vector.215", %"class.llvm::DenseMap.220", %"class.llvm::SmallVector.223", %"class.llvm::DebugLocStream", %"class.llvm::SmallSetVector", %"class.llvm::DenseMap.249", ptr, ptr, %"class.llvm::StringRef", %"class.llvm::DwarfFile", %"class.llvm::DenseMap.283", %"class.llvm::DenseMap.286", %"class.llvm::SmallVector.289", i32, i8, i8, i8, i8, i8, i8, i8, i8, i8, i8, i8, i8, i32, i32, i8, i8, i8, i8, [4 x i8], %"class.llvm::DwarfFile", %"class.llvm::MCDwarfDwoLineTable", i8, i8, [6 x i8], %"class.llvm::DenseMap.317", %"class.llvm::AddressPool", %"class.llvm::DWARF5AccelTable", %"class.llvm::DWARF5AccelTable", ptr, %"class.llvm::AccelTable.347", %"class.llvm::AccelTable.347", %"class.llvm::AccelTable.347", %"class.llvm::AccelTable.348", i32, [4 x i8] }>
%"class.llvm::DebugHandlerBase" = type { ptr, ptr, ptr, %"class.llvm::DebugLoc", ptr, ptr, %"class.llvm::DebugLoc", ptr, ptr, %"class.llvm::LexicalScopes", %"class.llvm::DbgValueHistoryMap", %"class.llvm::DbgLabelInstrMap", %"class.llvm::DenseMap.186", %"class.llvm::DenseMap.186", %"class.llvm::InstructionOrdering" }
%"class.llvm::DebugLoc" = type { %"class.llvm::TypedTrackingMDRef" }
%"class.llvm::TypedTrackingMDRef" = type { %"class.llvm::TrackingMDRef" }
%"class.llvm::TrackingMDRef" = type { ptr }
%"class.llvm::LexicalScopes" = type { ptr, %"class.std::unordered_map", %"class.std::unordered_map.149", %"class.std::unordered_map", %"class.llvm::SmallVector.167", ptr, %"class.llvm::DenseMap" }
%"class.std::unordered_map.149" = type { %"class.std::_Hashtable.150" }
%"class.std::_Hashtable.150" = type { ptr, i64, %"struct.std::__detail::_Hash_node_base", i64, %"struct.std::__detail::_Prime_rehash_policy", ptr }
%"struct.std::__detail::_Hash_node_base" = type { ptr }
%"struct.std::__detail::_Prime_rehash_policy" = type { float, i64 }
%"class.std::unordered_map" = type { %"class.std::_Hashtable" }
%"class.std::_Hashtable" = type { ptr, i64, %"struct.std::__detail::_Hash_node_base", i64, %"struct.std::__detail::_Prime_rehash_policy", ptr }
%"class.llvm::SmallVector.167" = type { %"class.llvm::SmallVectorImpl.168", %"struct.llvm::SmallVectorStorage.171" }
%"class.llvm::SmallVectorImpl.168" = type { %"class.llvm::SmallVectorTemplateBase.169" }
%"class.llvm::SmallVectorTemplateBase.169" = type { %"class.llvm::SmallVectorTemplateCommon.170" }
%"class.llvm::SmallVectorTemplateCommon.170" = type { %"class.llvm::SmallVectorBase" }
%"struct.llvm::SmallVectorStorage.171" = type { [32 x i8] }
%"class.llvm::DenseMap" = type <{ ptr, i32, i32, i32, [4 x i8] }>
%"class.llvm::DbgValueHistoryMap" = type { %"class.llvm::MapVector" }
%"class.llvm::MapVector" = type { %"class.llvm::DenseMap.172", %"class.llvm::SmallVector.175" }
%"class.llvm::DenseMap.172" = type <{ ptr, i32, i32, i32, [4 x i8] }>
%"class.llvm::SmallVector.175" = type { %"class.llvm::SmallVectorImpl.176" }
%"class.llvm::SmallVectorImpl.176" = type { %"class.llvm::SmallVectorTemplateBase.177" }
%"class.llvm::SmallVectorTemplateBase.177" = type { %"class.llvm::SmallVectorTemplateCommon.178" }
%"class.llvm::SmallVectorTemplateCommon.178" = type { %"class.llvm::SmallVectorBase" }
%"class.llvm::DbgLabelInstrMap" = type { %"class.llvm::MapVector.180" }
%"class.llvm::MapVector.180" = type { %"class.llvm::DenseMap.172", %"class.llvm::SmallVector.181" }
%"class.llvm::SmallVector.181" = type { %"class.llvm::SmallVectorImpl.182" }
%"class.llvm::SmallVectorImpl.182" = type { %"class.llvm::SmallVectorTemplateBase.183" }
%"class.llvm::SmallVectorTemplateBase.183" = type { %"class.llvm::SmallVectorTemplateCommon.184" }
%"class.llvm::SmallVectorTemplateCommon.184" = type { %"class.llvm::SmallVectorBase" }
%"class.llvm::DenseMap.186" = type <{ ptr, i32, i32, i32, [4 x i8] }>
%"class.llvm::InstructionOrdering" = type { %"class.llvm::DenseMap.189" }
%"class.llvm::DenseMap.189" = type <{ ptr, i32, i32, i32, [4 x i8] }>
%"class.llvm::BumpPtrAllocatorImpl" = type { ptr, ptr, %"class.llvm::SmallVector.193", %"class.llvm::SmallVector.198", i64, i64 }
%"class.llvm::SmallVector.193" = type { %"class.llvm::SmallVectorImpl.194", %"struct.llvm::SmallVectorStorage.197" }
%"class.llvm::SmallVectorImpl.194" = type { %"class.llvm::SmallVectorTemplateBase.195" }
%"class.llvm::SmallVectorTemplateBase.195" = type { %"class.llvm::SmallVectorTemplateCommon.196" }
%"class.llvm::SmallVectorTemplateCommon.196" = type { %"class.llvm::SmallVectorBase" }
%"struct.llvm::SmallVectorStorage.197" = type { [32 x i8] }
%"class.llvm::SmallVector.198" = type { %"class.llvm::SmallVectorImpl.199" }
%"class.llvm::SmallVectorImpl.199" = type { %"class.llvm::SmallVectorTemplateBase.200" }
%"class.llvm::SmallVectorTemplateBase.200" = type { %"class.llvm::SmallVectorTemplateCommon.201" }
%"class.llvm::SmallVectorTemplateCommon.201" = type { %"class.llvm::SmallVectorBase" }
%"class.llvm::MapVector.203" = type { %"class.llvm::DenseMap.204", %"class.llvm::SmallVector.207" }
%"class.llvm::DenseMap.204" = type <{ ptr, i32, i32, i32, [4 x i8] }>
%"class.llvm::SmallVector.207" = type { %"class.llvm::SmallVectorImpl.208" }
%"class.llvm::SmallVectorImpl.208" = type { %"class.llvm::SmallVectorTemplateBase.209" }
%"class.llvm::SmallVectorTemplateBase.209" = type { %"class.llvm::SmallVectorTemplateCommon.210" }
%"class.llvm::SmallVectorTemplateCommon.210" = type { %"class.llvm::SmallVectorBase" }
%"class.llvm::DenseMap.212" = type <{ ptr, i32, i32, i32, [4 x i8] }>
%"class.std::vector.215" = type { %"struct.std::_Vector_base.216" }
%"struct.std::_Vector_base.216" = type { %"struct.std::_Vector_base<llvm::SymbolCU, std::allocator<llvm::SymbolCU>>::_Vector_impl" }
%"struct.std::_Vector_base<llvm::SymbolCU, std::allocator<llvm::SymbolCU>>::_Vector_impl" = type { %"struct.std::_Vector_base<llvm::SymbolCU, std::allocator<llvm::SymbolCU>>::_Vector_impl_data" }
%"struct.std::_Vector_base<llvm::SymbolCU, std::allocator<llvm::SymbolCU>>::_Vector_impl_data" = type { ptr, ptr, ptr }
%"class.llvm::DenseMap.220" = type <{ ptr, i32, i32, i32, [4 x i8] }>
%"class.llvm::SmallVector.223" = type { %"class.llvm::SmallVectorImpl.224", %"struct.llvm::SmallVectorStorage.227" }
%"class.llvm::SmallVectorImpl.224" = type { %"class.llvm::SmallVectorTemplateBase.225" }
%"class.llvm::SmallVectorTemplateBase.225" = type { %"class.llvm::SmallVectorTemplateCommon.226" }
%"class.llvm::SmallVectorTemplateCommon.226" = type { %"class.llvm::SmallVectorBase" }
%"struct.llvm::SmallVectorStorage.227" = type { [512 x i8] }
%"class.llvm::DebugLocStream" = type <{ %"class.llvm::SmallVector.228", %"class.llvm::SmallVector.233", %"class.llvm::SmallString.238", %"class.std::vector", ptr, i8, [7 x i8] }>
%"class.llvm::SmallVector.228" = type { %"class.llvm::SmallVectorImpl.229", %"struct.llvm::SmallVectorStorage.232" }
%"class.llvm::SmallVectorImpl.229" = type { %"class.llvm::SmallVectorTemplateBase.230" }
%"class.llvm::SmallVectorTemplateBase.230" = type { %"class.llvm::SmallVectorTemplateCommon.231" }
%"class.llvm::SmallVectorTemplateCommon.231" = type { %"class.llvm::SmallVectorBase" }
%"struct.llvm::SmallVectorStorage.232" = type { [96 x i8] }
%"class.llvm::SmallVector.233" = type { %"class.llvm::SmallVectorImpl.234", %"struct.llvm::SmallVectorStorage.237" }
%"class.llvm::SmallVectorImpl.234" = type { %"class.llvm::SmallVectorTemplateBase.235" }
%"class.llvm::SmallVectorTemplateBase.235" = type { %"class.llvm::SmallVectorTemplateCommon.236" }
%"class.llvm::SmallVectorTemplateCommon.236" = type { %"class.llvm::SmallVectorBase" }
%"struct.llvm::SmallVectorStorage.237" = type { [1024 x i8] }
%"class.llvm::SmallString.238" = type { %"class.llvm::SmallVector.239" }
%"class.llvm::SmallVector.239" = type { %"class.llvm::SmallVectorImpl.85", %"struct.llvm::SmallVectorStorage.240" }
%"struct.llvm::SmallVectorStorage.240" = type { [256 x i8] }
%"class.llvm::SmallSetVector" = type { %"class.llvm::SetVector" }
%"class.llvm::SetVector" = type { %"class.llvm::DenseSet", %"class.llvm::SmallVector.244" }
%"class.llvm::DenseSet" = type { %"class.llvm::detail::DenseSetImpl" }
%"class.llvm::detail::DenseSetImpl" = type { %"class.llvm::DenseMap.241" }
%"class.llvm::DenseMap.241" = type <{ ptr, i32, i32, i32, [4 x i8] }>
%"class.llvm::SmallVector.244" = type { %"class.llvm::SmallVectorImpl.245", %"struct.llvm::SmallVectorStorage.248" }
%"class.llvm::SmallVectorImpl.245" = type { %"class.llvm::SmallVectorTemplateBase.246" }
%"class.llvm::SmallVectorTemplateBase.246" = type { %"class.llvm::SmallVectorTemplateCommon.247" }
%"class.llvm::SmallVectorTemplateCommon.247" = type { %"class.llvm::SmallVectorBase" }
%"struct.llvm::SmallVectorStorage.248" = type { [128 x i8] }
%"class.llvm::DenseMap.249" = type <{ ptr, i32, i32, i32, [4 x i8] }>
%"class.llvm::DenseMap.283" = type <{ ptr, i32, i32, i32, [4 x i8] }>
%"class.llvm::DenseMap.286" = type <{ ptr, i32, i32, i32, [4 x i8] }>
%"class.llvm::SmallVector.289" = type { %"class.llvm::SmallVectorImpl.290", %"struct.llvm::SmallVectorStorage.293" }
%"class.llvm::SmallVectorImpl.290" = type { %"class.llvm::SmallVectorTemplateBase.291" }
%"class.llvm::SmallVectorTemplateBase.291" = type { %"class.llvm::SmallVectorTemplateCommon.292" }
%"class.llvm::SmallVectorTemplateCommon.292" = type { %"class.llvm::SmallVectorBase" }
%"struct.llvm::SmallVectorStorage.293" = type { [16 x i8] }
%"class.llvm::DwarfFile" = type { ptr, %"class.llvm::BumpPtrAllocatorImpl", %"class.llvm::DIEAbbrevSet", %"class.llvm::SmallVector.257", %"class.llvm::DwarfStringPool", %"class.llvm::SmallVector.263", ptr, ptr, %"class.llvm::DenseMap.268", %"class.llvm::DenseMap.271", %"class.llvm::DenseMap.274", %"class.llvm::DenseMap.277", %"class.llvm::DenseMap.280" }
%"class.llvm::DIEAbbrevSet" = type { ptr, %"class.llvm::FoldingSet", %"class.std::vector.252" }
%"class.llvm::FoldingSet" = type { %"class.llvm::FoldingSetImpl" }
%"class.llvm::FoldingSetImpl" = type { %"class.llvm::FoldingSetBase" }
%"class.llvm::FoldingSetBase" = type { ptr, i32, i32 }
%"class.std::vector.252" = type { %"struct.std::_Vector_base.253" }
%"struct.std::_Vector_base.253" = type { %"struct.std::_Vector_base<llvm::DIEAbbrev *, std::allocator<llvm::DIEAbbrev *>>::_Vector_impl" }
%"struct.std::_Vector_base<llvm::DIEAbbrev *, std::allocator<llvm::DIEAbbrev *>>::_Vector_impl" = type { %"struct.std::_Vector_base<llvm::DIEAbbrev *, std::allocator<llvm::DIEAbbrev *>>::_Vector_impl_data" }
%"struct.std::_Vector_base<llvm::DIEAbbrev *, std::allocator<llvm::DIEAbbrev *>>::_Vector_impl_data" = type { ptr, ptr, ptr }
%"class.llvm::SmallVector.257" = type { %"class.llvm::SmallVectorImpl.258", %"struct.llvm::SmallVectorStorage.261" }
%"class.llvm::SmallVectorImpl.258" = type { %"class.llvm::SmallVectorTemplateBase.259" }
%"class.llvm::SmallVectorTemplateBase.259" = type { %"class.llvm::SmallVectorTemplateCommon.260" }
%"class.llvm::SmallVectorTemplateCommon.260" = type { %"class.llvm::SmallVectorBase" }
%"struct.llvm::SmallVectorStorage.261" = type { [8 x i8] }
%"class.llvm::DwarfStringPool" = type <{ %"class.llvm::StringMap", %"class.llvm::StringRef", i64, i32, i8, [3 x i8] }>
%"class.llvm::StringMap" = type { %"class.llvm::StringMapImpl", %"class.llvm::detail::AllocatorHolder.262" }
%"class.llvm::StringMapImpl" = type { ptr, i32, i32, i32, i32 }
%"class.llvm::detail::AllocatorHolder.262" = type { ptr }
%"class.llvm::SmallVector.263" = type { %"class.llvm::SmallVectorImpl.264", %"struct.llvm::SmallVectorStorage.267" }
%"class.llvm::SmallVectorImpl.264" = type { %"class.llvm::SmallVectorTemplateBase.265" }
%"class.llvm::SmallVectorTemplateBase.265" = type { %"class.llvm::SmallVectorTemplateCommon.266" }
%"class.llvm::SmallVectorTemplateCommon.266" = type { %"class.llvm::SmallVectorBase" }
%"struct.llvm::SmallVectorStorage.267" = type { [64 x i8] }
%"class.llvm::DenseMap.268" = type <{ ptr, i32, i32, i32, [4 x i8] }>
%"class.llvm::DenseMap.271" = type <{ ptr, i32, i32, i32, [4 x i8] }>
%"class.llvm::DenseMap.274" = type <{ ptr, i32, i32, i32, [4 x i8] }>
%"class.llvm::DenseMap.277" = type <{ ptr, i32, i32, i32, [4 x i8] }>
%"class.llvm::DenseMap.280" = type <{ ptr, i32, i32, i32, [4 x i8] }>
%"class.llvm::MCDwarfDwoLineTable" = type { %"struct.llvm::MCDwarfLineTableHeader", i8, [7 x i8] }
%"struct.llvm::MCDwarfLineTableHeader" = type <{ ptr, %"class.llvm::SmallVector.294", %"class.llvm::SmallVector.299", %"class.llvm::StringMap.304", %"class.std::__cxx11::basic_string", %"struct.llvm::MCDwarfFile", i8, i8, i8, [5 x i8] }>
%"class.llvm::SmallVector.294" = type { %"class.llvm::SmallVectorImpl.295", %"struct.llvm::SmallVectorStorage.298" }
%"class.llvm::SmallVectorImpl.295" = type { %"class.llvm::SmallVectorTemplateBase.296" }
%"class.llvm::SmallVectorTemplateBase.296" = type { %"class.llvm::SmallVectorTemplateCommon.297" }
%"class.llvm::SmallVectorTemplateCommon.297" = type { %"class.llvm::SmallVectorBase" }
%"struct.llvm::SmallVectorStorage.298" = type { [96 x i8] }
%"class.llvm::SmallVector.299" = type { %"class.llvm::SmallVectorImpl.300", %"struct.llvm::SmallVectorStorage.303" }
%"class.llvm::SmallVectorImpl.300" = type { %"class.llvm::SmallVectorTemplateBase.301" }
%"class.llvm::SmallVectorTemplateBase.301" = type { %"class.llvm::SmallVectorTemplateCommon.302" }
%"class.llvm::SmallVectorTemplateCommon.302" = type { %"class.llvm::SmallVectorBase" }
%"struct.llvm::SmallVectorStorage.303" = type { [240 x i8] }
%"class.llvm::StringMap.304" = type { %"class.llvm::StringMapImpl" }
%"struct.llvm::MCDwarfFile" = type { %"class.std::__cxx11::basic_string", i32, %"class.std::optional.305", [3 x i8], %"class.std::optional.311" }
%"class.std::optional.305" = type { %"struct.std::_Optional_base.306" }
%"struct.std::_Optional_base.306" = type { %"struct.std::_Optional_payload.308" }
%"struct.std::_Optional_payload.308" = type { %"struct.std::_Optional_payload_base.309" }
%"struct.std::_Optional_payload_base.309" = type { %"union.std::_Optional_payload_base<llvm::MD5::MD5Result>::_Storage", i8 }
%"union.std::_Optional_payload_base<llvm::MD5::MD5Result>::_Storage" = type { %"struct.llvm::MD5::MD5Result" }
%"struct.llvm::MD5::MD5Result" = type { %"struct.std::array" }
%"struct.std::array" = type { [16 x i8] }
%"class.std::optional.311" = type { %"struct.std::_Optional_base.312" }
%"struct.std::_Optional_base.312" = type { %"struct.std::_Optional_payload.314" }
%"struct.std::_Optional_payload.314" = type { %"struct.std::_Optional_payload_base.base", [7 x i8] }
%"struct.std::_Optional_payload_base.base" = type <{ %"union.std::_Optional_payload_base<llvm::StringRef>::_Storage", i8 }>
%"union.std::_Optional_payload_base<llvm::StringRef>::_Storage" = type { %"class.llvm::StringRef" }
%"class.llvm::DenseMap.317" = type <{ ptr, i32, i32, i32, [4 x i8] }>
%"class.llvm::AddressPool" = type { %"class.llvm::DenseMap.320", i8, ptr }
%"class.llvm::DenseMap.320" = type <{ ptr, i32, i32, i32, [4 x i8] }>
%"class.llvm::DWARF5AccelTable" = type { %"class.llvm::AccelTable", %"class.llvm::SmallVector.342" }
%"class.llvm::AccelTable" = type { %"class.llvm::AccelTableBase" }
%"class.llvm::AccelTableBase" = type { %"class.llvm::BumpPtrAllocatorImpl", %"class.llvm::MapVector.323", ptr, i32, i32, %"class.std::vector.332", %"class.std::vector.337" }
%"class.llvm::MapVector.323" = type { %"class.llvm::DenseMap.324", %"class.llvm::SmallVector.327" }
%"class.llvm::DenseMap.324" = type <{ ptr, i32, i32, i32, [4 x i8] }>
%"class.llvm::SmallVector.327" = type { %"class.llvm::SmallVectorImpl.328" }
%"class.llvm::SmallVectorImpl.328" = type { %"class.llvm::SmallVectorTemplateBase.329" }
%"class.llvm::SmallVectorTemplateBase.329" = type { %"class.llvm::SmallVectorTemplateCommon.330" }
%"class.llvm::SmallVectorTemplateCommon.330" = type { %"class.llvm::SmallVectorBase" }
%"class.std::vector.332" = type { %"struct.std::_Vector_base.333" }
%"struct.std::_Vector_base.333" = type { %"struct.std::_Vector_base<llvm::AccelTableBase::HashData *, std::allocator<llvm::AccelTableBase::HashData *>>::_Vector_impl" }
%"struct.std::_Vector_base<llvm::AccelTableBase::HashData *, std::allocator<llvm::AccelTableBase::HashData *>>::_Vector_impl" = type { %"struct.std::_Vector_base<llvm::AccelTableBase::HashData *, std::allocator<llvm::AccelTableBase::HashData *>>::_Vector_impl_data" }
%"struct.std::_Vector_base<llvm::AccelTableBase::HashData *, std::allocator<llvm::AccelTableBase::HashData *>>::_Vector_impl_data" = type { ptr, ptr, ptr }
%"class.std::vector.337" = type { %"struct.std::_Vector_base.338" }
%"struct.std::_Vector_base.338" = type { %"struct.std::_Vector_base<std::vector<llvm::AccelTableBase::HashData *>, std::allocator<std::vector<llvm::AccelTableBase::HashData *>>>::_Vector_impl" }
%"struct.std::_Vector_base<std::vector<llvm::AccelTableBase::HashData *>, std::allocator<std::vector<llvm::AccelTableBase::HashData *>>>::_Vector_impl" = type { %"struct.std::_Vector_base<std::vector<llvm::AccelTableBase::HashData *>, std::allocator<std::vector<llvm::AccelTableBase::HashData *>>>::_Vector_impl_data" }
%"struct.std::_Vector_base<std::vector<llvm::AccelTableBase::HashData *>, std::allocator<std::vector<llvm::AccelTableBase::HashData *>>>::_Vector_impl_data" = type { ptr, ptr, ptr }
%"class.llvm::SmallVector.342" = type { %"class.llvm::SmallVectorImpl.343", %"struct.llvm::SmallVectorStorage.346" }
%"class.llvm::SmallVectorImpl.343" = type { %"class.llvm::SmallVectorTemplateBase.344" }
%"class.llvm::SmallVectorTemplateBase.344" = type { %"class.llvm::SmallVectorTemplateCommon.345" }
%"class.llvm::SmallVectorTemplateCommon.345" = type { %"class.llvm::SmallVectorBase" }
%"struct.llvm::SmallVectorStorage.346" = type { [24 x i8] }
%"class.llvm::AccelTable.347" = type { %"class.llvm::AccelTableBase" }
%"class.llvm::AccelTable.348" = type { %"class.llvm::AccelTableBase" }
%"class.llvm::MCObjectFileInfo" = type { ptr, i8, i8, i8, i32, i32, ptr, ptr, ptr, ptr, ptr, ptr, ptr, ptr, ptr, ptr, ptr, ptr, ptr, ptr, ptr, ptr, ptr, ptr, ptr, ptr, ptr, ptr, ptr, ptr, ptr, ptr, ptr, ptr, ptr, ptr, ptr, ptr, ptr, ptr, ptr, ptr, ptr, ptr, ptr, ptr, ptr, ptr, ptr, ptr, ptr, ptr, ptr, ptr, ptr, ptr, ptr, ptr, ptr, ptr, ptr, ptr, ptr, ptr, ptr, ptr, ptr, ptr, ptr, ptr, ptr, ptr, ptr, ptr, ptr, ptr, ptr, ptr, ptr, ptr, ptr, ptr, ptr, ptr, ptr, ptr, ptr, ptr, ptr, ptr, ptr, ptr, ptr, ptr, ptr, ptr, ptr, ptr, ptr, ptr, ptr, ptr, ptr, ptr, %"struct.std::array.987", i8, ptr }
%"struct.std::array.987" = type { [11 x ptr] }

; Function Attrs: mustprogress nounwind uwtable
define linkonce_odr hidden noundef ptr @_ZNK4llvm9DwarfFile24getStringOffsetsStartSymEv(ptr noundef nonnull align 8 dereferenceable(456) %0) #1 comdat align 2 {
  %2 = alloca ptr, align 8
  store ptr %0, ptr %2, align 8
  %3 = load ptr, ptr %2, align 8
  %4 = getelementptr inbounds nuw %"class.llvm::DwarfFile", ptr %3, i32 0, i32 6
  %5 = load ptr, ptr %4, align 8
  ret ptr %5
}

; Function Attrs: mustprogress nounwind uwtable
define linkonce_odr hidden noundef nonnull align 8 dereferenceable(61) ptr @_ZN4llvm9DwarfFile13getStringPoolEv(ptr noundef nonnull align 8 dereferenceable(456) %0) #1 comdat align 2 {
  %2 = alloca ptr, align 8
  store ptr %0, ptr %2, align 8
  %3 = load ptr, ptr %2, align 8
  %4 = getelementptr inbounds nuw %"class.llvm::DwarfFile", ptr %3, i32 0, i32 4
  ret ptr %4
}

; Function Attrs: mustprogress nounwind uwtable
define linkonce_odr hidden noundef ptr @_ZNK4llvm16MCObjectFileInfo21getDwarfStrDWOSectionEv(ptr noundef nonnull align 8 dereferenceable(912) %0) #1 comdat align 2 {
  %2 = alloca ptr, align 8
  store ptr %0, ptr %2, align 8
  %3 = load ptr, ptr %2, align 8
  %4 = getelementptr inbounds nuw %"class.llvm::MCObjectFileInfo", ptr %3, i32 0, i32 34
  %5 = load ptr, ptr %4, align 8
  ret ptr %5
}

; Function Attrs: mustprogress nounwind uwtable
define linkonce_odr hidden noundef ptr @_ZNK4llvm16MCObjectFileInfo24getDwarfStrOffDWOSectionEv(ptr noundef nonnull align 8 dereferenceable(912) %0) #1 comdat align 2 {
  %2 = alloca ptr, align 8
  store ptr %0, ptr %2, align 8
  %3 = load ptr, ptr %2, align 8
  %4 = getelementptr inbounds nuw %"class.llvm::MCObjectFileInfo", ptr %3, i32 0, i32 37
  %5 = load ptr, ptr %4, align 8
  ret ptr %5
}

; Function Attrs: mustprogress nounwind uwtable
define dso_local void @_ZN4llvm10DwarfDebug31emitStringOffsetsTableHeaderDWOEv(ptr noundef nonnull align 8 dereferenceable(5828) %0) #1 align 2 {
  %2 = alloca ptr, align 8
  store ptr %0, ptr %2, align 8
  %3 = load ptr, ptr %2, align 8
  %4 = getelementptr inbounds nuw %"class.llvm::DwarfDebug", ptr %3, i32 0, i32 13
  %5 = call noundef nonnull align 8 dereferenceable(61) ptr @_ZN4llvm9DwarfFile13getStringPoolEv(ptr noundef nonnull align 8 dereferenceable(456) %4)
  %6 = getelementptr inbounds nuw %"class.llvm::DebugHandlerBase", ptr %3, i32 0, i32 1
  %7 = load ptr, ptr %6, align 8
  %8 = getelementptr inbounds nuw %"class.llvm::DebugHandlerBase", ptr %3, i32 0, i32 1
  %9 = load ptr, ptr %8, align 8
  %10 = call noundef nonnull align 8 dereferenceable(968) ptr @_ZNK4llvm10AsmPrinter18getObjFileLoweringEv(ptr noundef nonnull align 8 dereferenceable(785) %9)
  %11 = call noundef ptr @_ZNK4llvm16MCObjectFileInfo24getDwarfStrOffDWOSectionEv(ptr noundef nonnull align 8 dereferenceable(912) %10)
  %12 = getelementptr inbounds nuw %"class.llvm::DwarfDebug", ptr %3, i32 0, i32 13
  %13 = call noundef ptr @_ZNK4llvm9DwarfFile24getStringOffsetsStartSymEv(ptr noundef nonnull align 8 dereferenceable(456) %12)
  call void @_ZN4llvm15DwarfStringPool28emitStringOffsetsTableHeaderERNS_10AsmPrinterEPNS_9MCSectionEPNS_8MCSymbolE(ptr noundef nonnull align 8 dereferenceable(61) %5, ptr noundef nonnull align 8 dereferenceable(785) %7, ptr noundef %11, ptr noundef %13)
  ret void
}

; Function Attrs: mustprogress nounwind uwtable
define linkonce_odr hidden noundef zeroext i1 @_ZNK4llvm10DwarfDebug30useSegmentedStringOffsetsTableEv(ptr noundef nonnull align 8 dereferenceable(5828) %0) #1 comdat align 2 {
  %2 = alloca ptr, align 8
  store ptr %0, ptr %2, align 8
  %3 = load ptr, ptr %2, align 8
  %4 = getelementptr inbounds nuw %"class.llvm::DwarfDebug", ptr %3, i32 0, i32 34
  %5 = load i8, ptr %4, align 2
  %6 = trunc i8 %5 to i1
  ret i1 %6
}

; Function Attrs: mustprogress nounwind uwtable
define dso_local void @_ZN4llvm10DwarfDebug15emitDebugStrDWOEv(ptr noundef nonnull align 8 dereferenceable(5828) %0) #1 align 2 {
  %2 = alloca ptr, align 8
  %3 = alloca ptr, align 8
  store ptr %0, ptr %2, align 8
  %4 = load ptr, ptr %2, align 8
  %5 = call noundef zeroext i1 @_ZNK4llvm10DwarfDebug30useSegmentedStringOffsetsTableEv(ptr noundef nonnull align 8 dereferenceable(5828) %4)
  br i1 %5, label %6, label %7

6:                                                ; preds = %1
  call void @_ZN4llvm10DwarfDebug31emitStringOffsetsTableHeaderDWOEv(ptr noundef nonnull align 8 dereferenceable(5828) %4)
  br label %7

7:                                                ; preds = %6, %1
  %8 = getelementptr inbounds nuw %"class.llvm::DebugHandlerBase", ptr %4, i32 0, i32 1
  %9 = load ptr, ptr %8, align 8
  %10 = call noundef nonnull align 8 dereferenceable(968) ptr @_ZNK4llvm10AsmPrinter18getObjFileLoweringEv(ptr noundef nonnull align 8 dereferenceable(785) %9)
  %11 = call noundef ptr @_ZNK4llvm16MCObjectFileInfo24getDwarfStrOffDWOSectionEv(ptr noundef nonnull align 8 dereferenceable(912) %10)
  store ptr %11, ptr %3, align 8
  %12 = getelementptr inbounds nuw %"class.llvm::DwarfDebug", ptr %4, i32 0, i32 13
  %13 = getelementptr inbounds nuw %"class.llvm::DebugHandlerBase", ptr %4, i32 0, i32 1
  %14 = load ptr, ptr %13, align 8
  %15 = call noundef nonnull align 8 dereferenceable(968) ptr @_ZNK4llvm10AsmPrinter18getObjFileLoweringEv(ptr noundef nonnull align 8 dereferenceable(785) %14)
  %16 = call noundef ptr @_ZNK4llvm16MCObjectFileInfo21getDwarfStrDWOSectionEv(ptr noundef nonnull align 8 dereferenceable(912) %15)
  %17 = load ptr, ptr %3, align 8
  call void @_ZN4llvm9DwarfFile11emitStringsEPNS_9MCSectionES2_b(ptr noundef nonnull align 8 dereferenceable(456) %12, ptr noundef %16, ptr noundef %17, i1 noundef zeroext false)
  ret void
}