; Function Attrs: mustprogress nounwind uwtable
define dso_local void @_ZN4llvm10DwarfDebug15emitDebugStrDWOEv(ptr noundef nonnull align 8 dereferenceable(5828) %0) local_unnamed_addr #0 align 2 {
  %2 = getelementptr inbounds nuw i8, ptr %0, i64 3474
  %3 = load i8, ptr %2, align 2
  %4 = trunc i8 %3 to i1
  br i1 %4, label %5, label %14

5:                                                ; preds = %1
  %6 = getelementptr inbounds nuw i8, ptr %0, i64 3088
  %7 = getelementptr inbounds nuw i8, ptr %0, i64 8
  %8 = load ptr, ptr %7, align 8
  %9 = tail call noundef nonnull align 8 dereferenceable(968) ptr @_ZNK4llvm10AsmPrinter18getObjFileLoweringEv(ptr noundef nonnull align 8 dereferenceable(785) %8) #27
  %10 = getelementptr inbounds nuw i8, ptr %9, i64 272
  %11 = load ptr, ptr %10, align 8
  %12 = getelementptr inbounds nuw i8, ptr %0, i64 3232
  %13 = load ptr, ptr %12, align 8
  tail call void @_ZN4llvm15DwarfStringPool28emitStringOffsetsTableHeaderERNS_10AsmPrinterEPNS_9MCSectionEPNS_8MCSymbolE(ptr noundef nonnull align 8 dereferenceable(61) %6, ptr noundef nonnull align 8 dereferenceable(785) %8, ptr noundef %11, ptr noundef %13) #27
  br label %14

14:                                               ; preds = %5, %1
  %15 = getelementptr inbounds nuw i8, ptr %0, i64 8
  %16 = load ptr, ptr %15, align 8
  %17 = tail call noundef nonnull align 8 dereferenceable(968) ptr @_ZNK4llvm10AsmPrinter18getObjFileLoweringEv(ptr noundef nonnull align 8 dereferenceable(785) %16) #27
  %18 = getelementptr inbounds nuw i8, ptr %17, i64 272
  %19 = load ptr, ptr %18, align 8
  %20 = getelementptr inbounds nuw i8, ptr %0, i64 2912
  %21 = load ptr, ptr %15, align 8
  %22 = tail call noundef nonnull align 8 dereferenceable(968) ptr @_ZNK4llvm10AsmPrinter18getObjFileLoweringEv(ptr noundef nonnull align 8 dereferenceable(785) %21) #27
  %23 = getelementptr inbounds nuw i8, ptr %22, i64 248
  %24 = load ptr, ptr %23, align 8
  tail call void @_ZN4llvm9DwarfFile11emitStringsEPNS_9MCSectionES2_b(ptr noundef nonnull align 8 dereferenceable(456) %20, ptr noundef %24, ptr noundef %19, i1 noundef zeroext false) #27
  ret void
}